target datalayout = "e-m:e-p270:32:32-p271:32:32-p272:64:64-i64:64-i128:128-f80:128-n8:16:32:64-S128"
target triple = "x86_64-pc-linux-gnu"

%struct.H5FL_reg_head_t = type { i8, i32, i32, ptr, i64, ptr }
%struct.H5O_link_t = type { i32, i8, i64, i32, ptr, %union.anon }
%union.anon = type { %struct.H5O_link_ud_t }
%struct.H5O_link_ud_t = type { ptr, i64 }

@.str.1 = private unnamed_addr constant [101 x i8] c"generated/home/dtcxzyw/WorkSpace/Projects/compilers/llvm-opt-benchmark/bench/hdf5/hdf5/src/H5Olink.c\00", align 1
@H5_H5O_link_t_reg_free_list = internal global %struct.H5FL_reg_head_t { i8 0, i32 0, i32 0, ptr @.str.18, i64 48, ptr null }, align 8
@H5E_RESOURCE_g = external global i64, align 8
@H5E_NOSPACE_g = external global i64, align 8
@.str.9 = private unnamed_addr constant [25 x i8] c"memory allocation failed\00", align 1
@H5E_BADVALUE_g = external global i64, align 8
@__func__.H5O__link_copy_file = private unnamed_addr constant [20 x i8] c"H5O__link_copy_file\00", align 1
@H5E_SYM_g = external global i64, align 8
@.str.21 = private unnamed_addr constant [32 x i8] c"unrecognized built-in link type\00", align 1

; Function Attrs: nounwind uwtable
define internal ptr @H5O__link_copy_file(ptr noundef %0, ptr noundef %1, ptr noundef %2, ptr noundef %3, ptr noundef %4, ptr noundef %5, ptr noundef %6) #0 {
  %8 = alloca ptr, align 8
  %9 = alloca ptr, align 8
  %10 = alloca ptr, align 8
  %11 = alloca ptr, align 8
  %12 = alloca ptr, align 8
  %13 = alloca ptr, align 8
  %14 = alloca ptr, align 8
  %15 = alloca ptr, align 8
  %16 = alloca ptr, align 8
  %17 = alloca i8, align 1
  store ptr %0, ptr %8, align 8
  store ptr %1, ptr %9, align 8
  store ptr %2, ptr %10, align 8
  store ptr %3, ptr %11, align 8
  store ptr %4, ptr %12, align 8
  store ptr %5, ptr %13, align 8
  store ptr %6, ptr %14, align 8
  %18 = load ptr, ptr %9, align 8
  store ptr %18, ptr %15, align 8
  store ptr null, ptr %16, align 8
  store i8 0, ptr %17, align 1
  %19 = load ptr, ptr %15, align 8
  %20 = getelementptr inbounds %struct.H5O_link_t, ptr %19, i32 0, i32 0
  %21 = load i32, ptr %20, align 8
  %22 = icmp sgt i32 %21, 1
  br i1 %22, label %23, label %43

23:                                               ; preds = %7
  %24 = load ptr, ptr %15, align 8
  %25 = getelementptr inbounds %struct.H5O_link_t, ptr %24, i32 0, i32 0
  %26 = load i32, ptr %25, align 8
  %27 = icmp slt i32 %26, 64
  br i1 %27, label %28, label %43

28:                                               ; preds = %23
  br label %29

29:                                               ; preds = %28
  br label %30

30:                                               ; preds = %29
  br label %31

31:                                               ; preds = %30
  %32 = load i64, ptr @H5E_SYM_g, align 8
  %33 = load i64, ptr @H5E_BADVALUE_g, align 8
  %34 = call i32 (ptr, ptr, i32, i64, i64, ptr, ...) @H5E_printf_stack(ptr noundef @.str.1, ptr noundef @__func__.H5O__link_copy_file, i32 noundef 714, i64 noundef %32, i64 noundef %33, ptr noundef @.str.21)
  br label %35

35:                                               ; preds = %31
  store i8 1, ptr %17, align 1
  %36 = load i8, ptr %17, align 1
  %37 = trunc i8 %36 to i1
  %38 = zext i1 %37 to i8
  store i8 %38, ptr %17, align 1
  br label %39

39:                                               ; preds = %35
  br label %40

40:                                               ; preds = %39
  store ptr null, ptr %16, align 8
  br label %62

41:                                               ; No predecessors!
  br label %42

42:                                               ; preds = %41
  br label %43

43:                                               ; preds = %42, %23, %7
  %44 = call noalias ptr @H5FL_reg_calloc(ptr noundef @H5_H5O_link_t_reg_free_list)
  store ptr %44, ptr %16, align 8
  %45 = icmp eq ptr null, %44
  br i1 %45, label %46, label %61

46:                                               ; preds = %43
  br label %47

47:                                               ; preds = %46
  br label %48

48:                                               ; preds = %47
  br label %49

49:                                               ; preds = %48
  %50 = load i64, ptr @H5E_RESOURCE_g, align 8
  %51 = load i64, ptr @H5E_NOSPACE_g, align 8
  %52 = call i32 (ptr, ptr, i32, i64, i64, ptr, ...) @H5E_printf_stack(ptr noundef @.str.1, ptr noundef @__func__.H5O__link_copy_file, i32 noundef 719, i64 noundef %50, i64 noundef %51, ptr noundef @.str.9)
  br label %53

53:                                               ; preds = %49
  store i8 1, ptr %17, align 1
  %54 = load i8, ptr %17, align 1
  %55 = trunc i8 %54 to i1
  %56 = zext i1 %55 to i8
  store i8 %56, ptr %17, align 1
  br label %57

57:                                               ; preds = %53
  br label %58

58:                                               ; preds = %57
  store ptr null, ptr %16, align 8
  br label %62

59:                                               ; No predecessors!
  br label %60

60:                                               ; preds = %59
  br label %61

61:                                               ; preds = %60, %43
  br label %62

62:                                               ; preds = %61, %58, %40
  %63 = load ptr, ptr %16, align 8
  ret ptr %63
}