; Function Attrs: nounwind uwtable
define internal noalias ptr @H5O__link_copy_file(ptr nocapture readnone %0, ptr nocapture noundef readonly %1, ptr nocapture readnone %2, ptr nocapture readnone %3, ptr nocapture readnone %4, ptr nocapture readnone %5, ptr nocapture readnone %6) #0 {
  %8 = load i32, ptr %1, align 8
  %9 = add i32 %8, -2
  %or.cond = icmp ult i32 %9, 62
  br i1 %or.cond, label %10, label %14

10:                                               ; preds = %7
  %11 = load i64, ptr @H5E_SYM_g, align 8
  %12 = load i64, ptr @H5E_BADVALUE_g, align 8
  %13 = tail call i32 (ptr, ptr, i32, i64, i64, ptr, ...) @H5E_printf_stack(ptr noundef nonnull @.str.1, ptr noundef nonnull @__func__.H5O__link_copy_file, i32 noundef 714, i64 noundef %11, i64 noundef %12, ptr noundef nonnull @.str.21) #7
  br label %21

14:                                               ; preds = %7
  %15 = tail call noalias ptr @H5FL_reg_calloc(ptr noundef nonnull @H5_H5O_link_t_reg_free_list) #7
  %16 = icmp eq ptr %15, null
  br i1 %16, label %17, label %21

17:                                               ; preds = %14
  %18 = load i64, ptr @H5E_RESOURCE_g, align 8
  %19 = load i64, ptr @H5E_NOSPACE_g, align 8
  %20 = tail call i32 (ptr, ptr, i32, i64, i64, ptr, ...) @H5E_printf_stack(ptr noundef nonnull @.str.1, ptr noundef nonnull @__func__.H5O__link_copy_file, i32 noundef 719, i64 noundef %18, i64 noundef %19, ptr noundef nonnull @.str.9) #7
  br label %21

21:                                               ; preds = %14, %17, %10
  %.0 = phi ptr [ null, %10 ], [ null, %17 ], [ %15, %14 ]
  ret ptr %.0
}